target datalayout = "e-m:e-p270:32:32-p271:32:32-p272:64:64-i64:64-i128:128-f80:128-n8:16:32:64-S128"
target triple = "x86_64-pc-linux-gnu"

%struct._generic_N_Vector = type { ptr, ptr, ptr }
%struct._N_VectorContent_SensWrapper = type { ptr, i32, i32 }

; Function Attrs: nounwind uwtable
define void @N_VDiv_SensWrapper(ptr noundef %0, ptr noundef %1, ptr noundef %2) #0 {
  %4 = alloca ptr, align 8
  %5 = alloca ptr, align 8
  %6 = alloca ptr, align 8
  %7 = alloca i32, align 4
  store ptr %0, ptr %4, align 8, !tbaa !10
  store ptr %1, ptr %5, align 8, !tbaa !10
  store ptr %2, ptr %6, align 8, !tbaa !10
  call void @llvm.lifetime.start.p0(i64 4, ptr %7) #5
  store i32 0, ptr %7, align 4, !tbaa !3
  br label %8

8:                                                ; preds = %44, %3
  %9 = load i32, ptr %7, align 4, !tbaa !3
  %10 = load ptr, ptr %4, align 8, !tbaa !10
  %11 = getelementptr inbounds nuw %struct._generic_N_Vector, ptr %10, i32 0, i32 0
  %12 = load ptr, ptr %11, align 8, !tbaa !45
  %13 = getelementptr inbounds nuw %struct._N_VectorContent_SensWrapper, ptr %12, i32 0, i32 1
  %14 = load i32, ptr %13, align 8, !tbaa !40
  %15 = icmp slt i32 %9, %14
  br i1 %15, label %16, label %47

16:                                               ; preds = %8
  %17 = load ptr, ptr %4, align 8, !tbaa !10
  %18 = getelementptr inbounds nuw %struct._generic_N_Vector, ptr %17, i32 0, i32 0
  %19 = load ptr, ptr %18, align 8, !tbaa !45
  %20 = getelementptr inbounds nuw %struct._N_VectorContent_SensWrapper, ptr %19, i32 0, i32 0
  %21 = load ptr, ptr %20, align 8, !tbaa !44
  %22 = load i32, ptr %7, align 4, !tbaa !3
  %23 = sext i32 %22 to i64
  %24 = getelementptr inbounds ptr, ptr %21, i64 %23
  %25 = load ptr, ptr %24, align 8, !tbaa !10
  %26 = load ptr, ptr %5, align 8, !tbaa !10
  %27 = getelementptr inbounds nuw %struct._generic_N_Vector, ptr %26, i32 0, i32 0
  %28 = load ptr, ptr %27, align 8, !tbaa !45
  %29 = getelementptr inbounds nuw %struct._N_VectorContent_SensWrapper, ptr %28, i32 0, i32 0
  %30 = load ptr, ptr %29, align 8, !tbaa !44
  %31 = load i32, ptr %7, align 4, !tbaa !3
  %32 = sext i32 %31 to i64
  %33 = getelementptr inbounds ptr, ptr %30, i64 %32
  %34 = load ptr, ptr %33, align 8, !tbaa !10
  %35 = load ptr, ptr %6, align 8, !tbaa !10
  %36 = getelementptr inbounds nuw %struct._generic_N_Vector, ptr %35, i32 0, i32 0
  %37 = load ptr, ptr %36, align 8, !tbaa !45
  %38 = getelementptr inbounds nuw %struct._N_VectorContent_SensWrapper, ptr %37, i32 0, i32 0
  %39 = load ptr, ptr %38, align 8, !tbaa !44
  %40 = load i32, ptr %7, align 4, !tbaa !3
  %41 = sext i32 %40 to i64
  %42 = getelementptr inbounds ptr, ptr %39, i64 %41
  %43 = load ptr, ptr %42, align 8, !tbaa !10
  call void @N_VDiv(ptr noundef %25, ptr noundef %34, ptr noundef %43)
  br label %44

44:                                               ; preds = %16
  %45 = load i32, ptr %7, align 4, !tbaa !3
  %46 = add nsw i32 %45, 1
  store i32 %46, ptr %7, align 4, !tbaa !3
  br label %8

47:                                               ; preds = %8
  call void @llvm.lifetime.end.p0(i64 4, ptr %7) #5
  ret void
}