; Function Attrs: nounwind uwtable
define void @N_VDiv_SensWrapper(ptr noundef readonly captures(none) %0, ptr noundef readonly captures(none) %1, ptr noundef readonly captures(none) %2) #0 {
  %4 = load ptr, ptr %0, align 8, !tbaa !39
  %5 = getelementptr inbounds nuw i8, ptr %4, i64 8
  %6 = load i32, ptr %5, align 8, !tbaa !33
  %7 = icmp sgt i32 %6, 0
  br i1 %7, label %.lr.ph, label %._crit_edge

.lr.ph:                                           ; preds = %3, %.lr.ph
  %indvars.iv = phi i64 [ %indvars.iv.next, %.lr.ph ], [ 0, %3 ]
  %8 = phi ptr [ %20, %.lr.ph ], [ %4, %3 ]
  %9 = load ptr, ptr %8, align 8, !tbaa !38
  %10 = getelementptr inbounds nuw ptr, ptr %9, i64 %indvars.iv
  %11 = load ptr, ptr %10, align 8, !tbaa !40
  %12 = load ptr, ptr %1, align 8, !tbaa !39
  %13 = load ptr, ptr %12, align 8, !tbaa !38
  %14 = getelementptr inbounds nuw ptr, ptr %13, i64 %indvars.iv
  %15 = load ptr, ptr %14, align 8, !tbaa !40
  %16 = load ptr, ptr %2, align 8, !tbaa !39
  %17 = load ptr, ptr %16, align 8, !tbaa !38
  %18 = getelementptr inbounds nuw ptr, ptr %17, i64 %indvars.iv
  %19 = load ptr, ptr %18, align 8, !tbaa !40
  tail call void @N_VDiv(ptr noundef %11, ptr noundef %15, ptr noundef %19) #7
  %indvars.iv.next = add nuw nsw i64 %indvars.iv, 1
  %20 = load ptr, ptr %0, align 8, !tbaa !39
  %21 = getelementptr inbounds nuw i8, ptr %20, i64 8
  %22 = load i32, ptr %21, align 8, !tbaa !33
  %23 = sext i32 %22 to i64
  %24 = icmp slt i64 %indvars.iv.next, %23
  br i1 %24, label %.lr.ph, label %._crit_edge

._crit_edge:                                      ; preds = %.lr.ph, %3
  ret void
}